target datalayout = "e-m:e-p270:32:32-p271:32:32-p272:64:64-i64:64-i128:128-f80:128-n8:16:32:64-S128"
target triple = "x86_64-unknown-linux-gnu"

%"class.std::__cxx11::basic_string" = type { %"struct.std::__cxx11::basic_string<char>::_Alloc_hider", i64, %union.anon }
%"struct.std::__cxx11::basic_string<char>::_Alloc_hider" = type { ptr }
%union.anon = type { i64, [8 x i8] }
%"class.proxygen::StructuredHeadersEncoder" = type { %"class.std::__cxx11::basic_string", %"class.boost::iostreams::stream_buffer", %"class.std::basic_ostream" }
%"class.boost::iostreams::stream_buffer" = type { %"class.boost::iostreams::detail::indirect_streambuf.base", [4 x i8] }
%"class.boost::iostreams::detail::indirect_streambuf.base" = type <{ %"class.boost::iostreams::detail::linked_streambuf.base", [4 x i8], %"class.boost::iostreams::detail::optional", ptr, %"class.boost::iostreams::detail::double_object", i64, i32 }>
%"class.boost::iostreams::detail::linked_streambuf.base" = type <{ %"class.std::basic_streambuf", i32 }>
%"class.std::basic_streambuf" = type { ptr, ptr, ptr, ptr, ptr, ptr, ptr, %"class.std::locale" }
%"class.std::locale" = type { ptr }
%"class.boost::iostreams::detail::optional" = type { %"class.boost::iostreams::detail::aligned_storage", i8, [7 x i8] }
%"class.boost::iostreams::detail::aligned_storage" = type { %"union.boost::iostreams::detail::aligned_storage<boost::iostreams::detail::concept_adapter<boost::iostreams::back_insert_device<std::__cxx11::basic_string<char>>>>::dummy_u" }
%"union.boost::iostreams::detail::aligned_storage<boost::iostreams::detail::concept_adapter<boost::iostreams::back_insert_device<std::__cxx11::basic_string<char>>>>::dummy_u" = type { [8 x i8] }
%"class.boost::iostreams::detail::double_object" = type { %"class.boost::iostreams::detail::single_object_holder" }
%"class.boost::iostreams::detail::single_object_holder" = type { %"class.boost::iostreams::detail::basic_buffer" }
%"class.boost::iostreams::detail::basic_buffer" = type { ptr, i64 }
%"class.std::basic_ostream" = type { ptr, %"class.std::basic_ios" }
%"class.std::basic_ios" = type { %"class.std::ios_base", ptr, i8, i8, ptr, ptr, ptr, ptr }
%"class.std::ios_base" = type { ptr, i64, i64, i32, i32, i32, ptr, %"struct.std::ios_base::_Words", [8 x %"struct.std::ios_base::_Words"], i32, ptr, %"class.std::locale" }
%"struct.std::ios_base::_Words" = type { ptr, i64 }
%"class.std::basic_string_view" = type { i64, ptr }

@.str.16 = private unnamed_addr constant [2 x i8] c"*\00", align 1

; Function Attrs: mustprogress uwtable
define noundef zeroext i8 @_ZN8proxygen24StructuredHeadersEncoder19encodeBinaryContentERKNSt7__cxx1112basic_stringIcSt11char_traitsIcESaIcEEE(ptr noundef nonnull align 8 dereferenceable(432) %this, ptr noundef nonnull align 8 dereferenceable(32) %input) #0 align 2 personality ptr @__gxx_personality_v0 {
entry:
  %this.addr = alloca ptr, align 8
  %input.addr = alloca ptr, align 8
  %ref.tmp = alloca %"class.std::__cxx11::basic_string", align 8
  %agg.tmp = alloca %"class.std::basic_string_view", align 8
  %exn.slot = alloca ptr, align 8
  %ehselector.slot = alloca i32, align 4
  store ptr %this, ptr %this.addr, align 8
  store ptr %input, ptr %input.addr, align 8
  %this1 = load ptr, ptr %this.addr, align 8
  %outputStream_ = getelementptr inbounds %"class.proxygen::StructuredHeadersEncoder", ptr %this1, i32 0, i32 2
  %call = call noundef nonnull align 8 dereferenceable(8) ptr @_ZStlsISt11char_traitsIcEERSt13basic_ostreamIcT_ES5_PKc(ptr noundef nonnull align 8 dereferenceable(8) %outputStream_, ptr noundef @.str.16)
  %outputStream_2 = getelementptr inbounds %"class.proxygen::StructuredHeadersEncoder", ptr %this1, i32 0, i32 2
  %0 = load ptr, ptr %input.addr, align 8
  %call3 = call { i64, ptr } @_ZNKSt7__cxx1112basic_stringIcSt11char_traitsIcESaIcEEcvSt17basic_string_viewIcS2_EEv(ptr noundef nonnull align 8 dereferenceable(32) %0) #4
  %1 = getelementptr inbounds { i64, ptr }, ptr %agg.tmp, i32 0, i32 0
  %2 = extractvalue { i64, ptr } %call3, 0
  store i64 %2, ptr %1, align 8
  %3 = getelementptr inbounds { i64, ptr }, ptr %agg.tmp, i32 0, i32 1
  %4 = extractvalue { i64, ptr } %call3, 1
  store ptr %4, ptr %3, align 8
  %5 = getelementptr inbounds { i64, ptr }, ptr %agg.tmp, i32 0, i32 0
  %6 = load i64, ptr %5, align 8
  %7 = getelementptr inbounds { i64, ptr }, ptr %agg.tmp, i32 0, i32 1
  %8 = load ptr, ptr %7, align 8
  call void @_ZN5folly12base64EncodeB5cxx11ESt17basic_string_viewIcSt11char_traitsIcEE(ptr sret(%"class.std::__cxx11::basic_string") align 8 %ref.tmp, i64 %6, ptr %8)
  %call4 = invoke noundef nonnull align 8 dereferenceable(8) ptr @_ZStlsIcSt11char_traitsIcESaIcEERSt13basic_ostreamIT_T0_ES7_RKNSt7__cxx1112basic_stringIS4_S5_T1_EE(ptr noundef nonnull align 8 dereferenceable(8) %outputStream_2, ptr noundef nonnull align 8 dereferenceable(32) %ref.tmp)
          to label %invoke.cont unwind label %lpad

invoke.cont:                                      ; preds = %entry
  call void @_ZNSt7__cxx1112basic_stringIcSt11char_traitsIcESaIcEED1Ev(ptr noundef nonnull align 8 dereferenceable(32) %ref.tmp) #4
  %outputStream_5 = getelementptr inbounds %"class.proxygen::StructuredHeadersEncoder", ptr %this1, i32 0, i32 2
  %call6 = call noundef nonnull align 8 dereferenceable(8) ptr @_ZStlsISt11char_traitsIcEERSt13basic_ostreamIcT_ES5_PKc(ptr noundef nonnull align 8 dereferenceable(8) %outputStream_5, ptr noundef @.str.16)
  ret i8 0

lpad:                                             ; preds = %entry
  %9 = landingpad { ptr, i32 }
          cleanup
  %10 = extractvalue { ptr, i32 } %9, 0
  store ptr %10, ptr %exn.slot, align 8
  %11 = extractvalue { ptr, i32 } %9, 1
  store i32 %11, ptr %ehselector.slot, align 4
  call void @_ZNSt7__cxx1112basic_stringIcSt11char_traitsIcESaIcEED1Ev(ptr noundef nonnull align 8 dereferenceable(32) %ref.tmp) #4
  br label %eh.resume

eh.resume:                                        ; preds = %lpad
  %exn = load ptr, ptr %exn.slot, align 8
  %sel = load i32, ptr %ehselector.slot, align 4
  %lpad.val = insertvalue { ptr, i32 } poison, ptr %exn, 0
  %lpad.val7 = insertvalue { ptr, i32 } %lpad.val, i32 %sel, 1
  resume { ptr, i32 } %lpad.val7
}